target datalayout = "e-m:e-p270:32:32-p271:32:32-p272:64:64-i64:64-i128:128-f80:128-n8:16:32:64-S128"
target triple = "x86_64-unknown-linux-gnu"

%"class.icu_75::ICUResourceBundleFactory" = type { %"class.icu_75::LocaleKeyFactory.base", %"class.icu_75::UnicodeString" }
%"class.icu_75::LocaleKeyFactory.base" = type <{ %"class.icu_75::ICUServiceFactory", %"class.icu_75::UnicodeString", i32 }>
%"class.icu_75::ICUServiceFactory" = type { %"class.icu_75::UObject" }
%"class.icu_75::UObject" = type { ptr }
%"class.icu_75::UnicodeString" = type { %"class.icu_75::Replaceable", %"union.icu_75::UnicodeString::StackBufferOrFields" }
%"class.icu_75::Replaceable" = type { %"class.icu_75::UObject" }
%"union.icu_75::UnicodeString::StackBufferOrFields" = type { %struct.anon.0, [32 x i8] }
%struct.anon.0 = type { i16, i32, i32, ptr }

; Function Attrs: mustprogress uwtable
define void @_ZN6icu_7524ICUResourceBundleFactoryC2ERKNS_13UnicodeStringE(ptr noundef nonnull align 8 dereferenceable(144) %this, ptr noundef nonnull align 8 dereferenceable(64) %bundleName) unnamed_addr #1 align 2 personality ptr @__gxx_personality_v0 {
entry:
  %this.addr = alloca ptr, align 8
  %bundleName.addr = alloca ptr, align 8
  %exn.slot = alloca ptr, align 8
  %ehselector.slot = alloca i32, align 4
  store ptr %this, ptr %this.addr, align 8
  store ptr %bundleName, ptr %bundleName.addr, align 8
  %this1 = load ptr, ptr %this.addr, align 8
  call void @_ZN6icu_7516LocaleKeyFactoryC2Ei(ptr noundef nonnull align 8 dereferenceable(76) %this1, i32 noundef 0)
  store ptr getelementptr inbounds ({ [11 x ptr] }, ptr @_ZTVN6icu_7524ICUResourceBundleFactoryE, i32 0, i32 0, i32 2), ptr %this1, align 8
  %_bundleName = getelementptr inbounds %"class.icu_75::ICUResourceBundleFactory", ptr %this1, i32 0, i32 1
  %0 = load ptr, ptr %bundleName.addr, align 8
  invoke void @_ZN6icu_7513UnicodeStringC1ERKS0_(ptr noundef nonnull align 8 dereferenceable(64) %_bundleName, ptr noundef nonnull align 8 dereferenceable(64) %0)
          to label %invoke.cont unwind label %lpad

invoke.cont:                                      ; preds = %entry
  ret void

lpad:                                             ; preds = %entry
  %1 = landingpad { ptr, i32 }
          cleanup
  %2 = extractvalue { ptr, i32 } %1, 0
  store ptr %2, ptr %exn.slot, align 8
  %3 = extractvalue { ptr, i32 } %1, 1
  store i32 %3, ptr %ehselector.slot, align 4
  call void @_ZN6icu_7516LocaleKeyFactoryD2Ev(ptr noundef nonnull align 8 dereferenceable(76) %this1) #7
  br label %eh.resume

eh.resume:                                        ; preds = %lpad
  %exn = load ptr, ptr %exn.slot, align 8
  %sel = load i32, ptr %ehselector.slot, align 4
  %lpad.val = insertvalue { ptr, i32 } poison, ptr %exn, 0
  %lpad.val2 = insertvalue { ptr, i32 } %lpad.val, i32 %sel, 1
  resume { ptr, i32 } %lpad.val2
}