; Function Attrs: mustprogress uwtable
define void @_ZN6icu_7524ICUResourceBundleFactoryC2ERKNS_13UnicodeStringE(ptr noundef nonnull align 8 dereferenceable(144) %this, ptr noundef nonnull align 8 dereferenceable(64) %bundleName) unnamed_addr #1 align 2 personality ptr @__gxx_personality_v0 {
entry:
  tail call void @_ZN6icu_7516LocaleKeyFactoryC2Ei(ptr noundef nonnull align 8 dereferenceable(76) %this, i32 noundef 0)
  store ptr getelementptr inbounds ({ [11 x ptr] }, ptr @_ZTVN6icu_7524ICUResourceBundleFactoryE, i64 0, i32 0, i64 2), ptr %this, align 8
  %_bundleName = getelementptr inbounds i8, ptr %this, i64 80
  invoke void @_ZN6icu_7513UnicodeStringC1ERKS0_(ptr noundef nonnull align 8 dereferenceable(64) %_bundleName, ptr noundef nonnull align 8 dereferenceable(64) %bundleName)
          to label %invoke.cont unwind label %lpad

invoke.cont:                                      ; preds = %entry
  ret void

lpad:                                             ; preds = %entry
  %0 = landingpad { ptr, i32 }
          cleanup
  tail call void @_ZN6icu_7516LocaleKeyFactoryD2Ev(ptr noundef nonnull align 8 dereferenceable(76) %this) #9
  resume { ptr, i32 } %0
}